Certificate:
    Data:
        Version: 3 (0x2)
        Serial Number:
            95:1d:f0:43:db:aa:89:cb
        Signature Algorithm: sha1WithRSAEncryption
        Issuer: C=FR, ST=IDF, L=Paris, O=NodeOPCUA, CN=NodeOPCUA-TEST
        Validity
            Not Before: Mar 28 10:59:48 2018 GMT
            Not After : Mar 24 10:59:48 2033 GMT
        Subject: C=FR, ST=IDF, L=Paris, O=NodeOPCUA, CN=NodeOPCUA-TEST
        Subject Public Key Info:
            Public Key Algorithm: rsaEncryption
            RSA Public Key: (2048 bit)
                Modulus (2048 bit):
                    00:a6:e1:4a:b3:4c:4a:a7:f8:a6:d8:f9:e2:ec:83:
                    33:1e:f0:5e:64:78:a7:23:51:dd:8c:36:4e:58:af:
                    70:8c:28:6f:ec:0c:77:28:ad:75:4d:93:7b:21:90:
                    0d:ea:0d:22:f5:17:6d:79:fa:99:d2:14:ad:30:4d:
                    5a:0e:04:2b:c4:8d:a2:d8:c7:86:2e:56:1c:1d:0b:
                    8c:99:76:e7:b9:68:ce:dd:41:39:61:87:7e:9a:9e:
                    27:47:e9:ef:0f:13:8a:59:d6:84:cd:a1:dd:e7:32:
                    44:50:43:04:44:31:0b:b6:ca:40:53:7b:e2:3d:24:
                    5a:c3:9e:e3:51:f1:8f:79:54:39:94:34:91:48:18:
                    14:b8:7d:4d:e4:10:c3:c0:f0:65:5e:74:b4:b9:34:
                    52:dd:ce:53:3c:e0:6d:92:ca:d1:66:13:80:6f:f1:
                    46:84:8b:2e:46:02:dd:97:f6:a8:e8:fd:90:6e:a9:
                    08:99:c3:d8:ee:e1:2d:95:5f:04:58:87:87:4b:42:
                    66:6e:85:8c:b8:6a:2e:26:52:40:a8:e6:79:f8:bb:
                    69:52:56:b8:eb:57:9b:19:16:12:1e:c4:54:1e:b3:
                    ba:e0:6b:bd:a0:ab:75:00:63:fe:ec:d3:01:79:55:
                    fb:11:0c:31:e4:e1:ce:2b:ce:7f:7f:8a:fb:a0:dd:
                    99:a7
                Exponent: 65537 (0x10001)
        X509v3 extensions:
            X509v3 Subject Key Identifier: 
                23:58:AE:C9:D5:5C:1A:26:E4:3E:AA:38:55:4B:B4:A2:D8:ED:22:03
            X509v3 Authority Key Identifier: 
                keyid:23:58:AE:C9:D5:5C:1A:26:E4:3E:AA:38:55:4B:B4:A2:D8:ED:22:03
                DirName:/C=FR/ST=IDF/L=Paris/O=NodeOPCUA/CN=NodeOPCUA-TEST
                serial:95:1D:F0:43:DB:AA:89:CB

            X509v3 Basic Constraints: 
                CA:TRUE
            X509v3 Key Usage: critical
                Certificate Sign, CRL Sign
            Netscape Comment: 
                SelfSigned Certificate generated by Node-OPCUA Certificate utility using openssl
            X509v3 Subject Alternative Name: 
                URI:urn:dyn-159-234.public.tut.fi:Node-OPCUA-Server, DNS:dyn-159-234.public.tut.fi
    Signature Algorithm: sha1WithRSAEncryption
        47:1e:56:75:60:6a:f8:8e:ee:7e:1d:6e:a8:71:da:a8:f0:1f:
        b5:18:a5:52:73:9a:af:aa:44:2e:a2:06:ad:94:bd:38:8d:cb:
        3e:6f:60:ba:58:48:1b:4d:34:60:60:37:86:07:66:82:71:37:
        2e:0a:3e:ef:25:86:be:bf:0c:72:db:56:b4:a8:56:44:88:74:
        4a:77:1c:a6:43:ec:aa:b2:3c:d7:9c:82:b6:10:a0:c5:dd:8e:
        be:b2:1d:b3:09:7f:d0:13:eb:1d:c5:f3:ef:a4:ba:06:e9:5a:
        05:4a:75:9c:57:43:21:0b:ef:bf:83:0f:5d:8b:ea:34:aa:e4:
        13:2f:86:5d:05:83:36:df:f5:17:27:52:94:09:07:4b:1e:5c:
        5c:46:ab:6e:9b:77:b6:fe:bd:06:0a:3f:ef:8a:9c:2c:4d:04:
        95:ae:af:af:75:7d:5a:d7:e3:0f:bb:92:c7:02:f4:2f:94:3a:
        8c:6a:51:4c:2d:a2:40:2c:6f:32:3c:a3:16:da:2c:a1:88:d9:
        19:f7:d0:96:13:8e:83:95:d3:67:b1:74:db:4f:7f:ee:d7:a2:
        75:84:af:71:a7:e0:8e:1e:8a:81:24:1e:0e:4d:8f:14:e1:17:
        43:cd:60:98:f6:18:6a:b2:b3:18:c4:35:39:a1:05:dc:fd:1e:
        02:5f:81:2c
-----BEGIN CERTIFICATE-----
MIIEujCCA6KgAwIBAgIJAJUd8EPbqonLMA0GCSqGSIb3DQEBBQUAMFgxCzAJBgNV
BAYTAkZSMQwwCgYDVQQIDANJREYxDjAMBgNVBAcMBVBhcmlzMRIwEAYDVQQKDAlO
b2RlT1BDVUExFzAVBgNVBAMMDk5vZGVPUENVQS1URVNUMB4XDTE4MDMyODEwNTk0
OFoXDTMzMDMyNDEwNTk0OFowWDELMAkGA1UEBhMCRlIxDDAKBgNVBAgMA0lERjEO
MAwGA1UEBwwFUGFyaXMxEjAQBgNVBAoMCU5vZGVPUENVQTEXMBUGA1UEAwwOTm9k
ZU9QQ1VBLVRFU1QwggEiMA0GCSqGSIb3DQEBAQUAA4IBDwAwggEKAoIBAQCm4Uqz
TEqn+KbY+eLsgzMe8F5keKcjUd2MNk5Yr3CMKG/sDHcorXVNk3shkA3qDSL1F215
+pnSFK0wTVoOBCvEjaLYx4YuVhwdC4yZdue5aM7dQTlhh36anidH6e8PE4pZ1oTN
od3nMkRQQwREMQu2ykBTe+I9JFrDnuNR8Y95VDmUNJFIGBS4fU3kEMPA8GVedLS5
NFLdzlM84G2SytFmE4Bv8UaEiy5GAt2X9qjo/ZBuqQiZw9ju4S2VXwRYh4dLQmZu
hYy4ai4mUkCo5nn4u2lSVrjrV5sZFhIexFQes7rga72gq3UAY/7s0wF5VfsRDDHk
4c4rzn9/ivug3ZmnAgMBAAGjggGFMIIBgTAdBgNVHQ4EFgQUI1iuydVcGibkPqo4
VUu0otjtIgMwgYkGA1UdIwSBgTB/gBQjWK7J1VwaJuQ+qjhVS7Si2O0iA6FcpFow
WDELMAkGA1UEBhMCRlIxDDAKBgNVBAgMA0lERjEOMAwGA1UEBwwFUGFyaXMxEjAQ
BgNVBAoMCU5vZGVPUENVQTEXMBUGA1UEAwwOTm9kZU9QQ1VBLVRFU1SCCQCVHfBD
26qJyzAMBgNVHRMEBTADAQH/MA4GA1UdDwEB/wQEAwIBBjBfBglghkgBhvhCAQ0E
UhZQU2VsZlNpZ25lZCBDZXJ0aWZpY2F0ZSBnZW5lcmF0ZWQgYnkgTm9kZS1PUENV
QSBDZXJ0aWZpY2F0ZSB1dGlsaXR5IHVzaW5nIG9wZW5zc2wwVQYDVR0RBE4wTIYv
dXJuOmR5bi0xNTktMjM0LnB1YmxpYy50dXQuZmk6Tm9kZS1PUENVQS1TZXJ2ZXKC
GWR5bi0xNTktMjM0LnB1YmxpYy50dXQuZmkwDQYJKoZIhvcNAQEFBQADggEBAEce
VnVgaviO7n4dbqhx2qjwH7UYpVJzmq+qRC6iBq2UvTiNyz5vYLpYSBtNNGBgN4YH
ZoJxNy4KPu8lhr6/DHLbVrSoVkSIdEp3HKZD7KqyPNecgrYQoMXdjr6yHbMJf9AT
6x3F8++kugbpWgVKdZxXQyEL77+DD12L6jSq5BMvhl0Fgzbf9RcnUpQJB0seXFxG
q26bd7b+vQYKP++KnCxNBJWur691fVrX4w+7kscC9C+UOoxqUUwtokAsbzI8oxba
LKGI2Rn30JYTjoOV02exdNtPf+7XonWEr3Gn4I4eioEkHg5NjxThF0PNYJj2GGqy
sxjENTmhBdz9HgJfgSw=
-----END CERTIFICATE-----
