Certificate:
    Data:
        Version: 3 (0x2)
        Serial Number:
            dc:b7:d0:d3:98:c1:85:28
        Signature Algorithm: sha1WithRSAEncryption
        Issuer: C=FR, ST=IDF, L=Paris, O=NodeOPCUA, CN=NodeOPCUA-TEST
        Validity
            Not Before: Mar 28 10:59:47 2018 GMT
            Not After : Mar 24 10:59:47 2033 GMT
        Subject: C=FR, ST=IDF, L=Paris, O=NodeOPCUA, CN=NodeOPCUA-TEST
        Subject Public Key Info:
            Public Key Algorithm: rsaEncryption
            RSA Public Key: (2048 bit)
                Modulus (2048 bit):
                    00:b6:53:a4:67:ea:d7:b2:af:f1:35:aa:3c:3f:d7:
                    4a:dd:37:a8:ab:23:84:e8:59:97:7c:25:a6:53:16:
                    51:a3:f7:7c:a3:59:a6:2e:11:fd:b0:5e:f6:57:33:
                    d8:08:85:a0:91:3f:06:eb:3d:6c:5b:dd:dc:65:d0:
                    be:ca:63:f9:45:a6:90:68:4b:49:a7:07:99:31:c3:
                    67:cd:d7:f7:4c:e9:d9:ae:d3:d5:4c:7c:93:69:d0:
                    28:0a:eb:84:1e:37:ae:1e:42:a6:fc:22:04:7c:7b:
                    eb:36:c3:11:15:c4:b4:46:fe:a1:b6:42:94:34:7b:
                    96:a0:28:bb:e2:66:1b:b4:6e:e0:bf:89:68:26:30:
                    02:ac:a7:5e:d3:5c:78:53:35:c5:37:18:42:23:e9:
                    3f:6c:79:2e:ff:5c:ad:b1:fc:a4:44:3c:e1:6e:0a:
                    9d:2f:fc:63:6f:f7:26:d2:45:17:1c:a7:98:8f:ae:
                    c2:8b:cd:05:d0:6d:b0:57:b7:1d:33:07:7b:44:c1:
                    70:91:9e:d4:d0:61:02:ea:6d:4c:2b:bc:9e:7f:33:
                    38:e9:d0:a2:42:49:b6:43:3f:96:b5:4c:fc:23:08:
                    64:32:40:8e:03:0a:d1:92:b5:92:e6:55:0f:de:61:
                    9e:9c:20:b6:f5:81:43:6a:51:36:f1:56:ec:ad:d1:
                    0d:11
                Exponent: 65537 (0x10001)
        X509v3 extensions:
            X509v3 Subject Key Identifier: 
                65:0B:8B:E3:58:3A:4B:61:87:03:24:52:5C:67:ED:BA:09:B2:F3:ED
            X509v3 Authority Key Identifier: 
                keyid:65:0B:8B:E3:58:3A:4B:61:87:03:24:52:5C:67:ED:BA:09:B2:F3:ED
                DirName:/C=FR/ST=IDF/L=Paris/O=NodeOPCUA/CN=NodeOPCUA-TEST
                serial:DC:B7:D0:D3:98:C1:85:28

            X509v3 Basic Constraints: 
                CA:TRUE
            X509v3 Key Usage: critical
                Certificate Sign, CRL Sign
            Netscape Comment: 
                SelfSigned Certificate generated by Node-OPCUA Certificate utility using openssl
            X509v3 Subject Alternative Name: 
                URI:urn:dyn-159-234.public.tut.fi:Node-OPCUA-Server, DNS:dyn-159-234.public.tut.fi
    Signature Algorithm: sha1WithRSAEncryption
        08:f1:82:7f:5f:1a:1c:da:70:10:e2:70:72:fe:0d:e9:f0:56:
        38:4c:54:31:2e:d3:c4:d4:64:34:74:7b:31:4e:91:38:6d:f2:
        de:17:bf:d0:b0:d4:a2:af:e8:2f:2a:15:58:41:c9:98:1d:b1:
        0f:32:25:cb:c2:d2:36:6d:da:93:ef:c1:d3:db:13:06:6a:3f:
        1d:04:4e:97:0a:5d:21:ca:8a:04:d0:04:2e:50:85:f1:46:56:
        eb:5c:82:7b:23:ec:aa:8e:14:30:1b:86:fa:17:9f:a5:ac:9b:
        af:a9:67:5f:45:1a:5c:96:5f:f7:21:47:0e:ed:c3:27:d3:45:
        26:98:60:47:5a:1d:ed:2d:4f:9c:c2:01:f6:fa:ad:0c:1b:39:
        e3:51:e3:b6:1b:85:70:47:82:67:8f:31:3d:a7:eb:b0:8f:fc:
        59:74:3a:31:8c:2e:4b:d1:55:61:dc:e9:8a:3b:27:d4:99:93:
        2e:35:0f:91:5d:4c:a8:e1:0c:04:6d:08:65:0e:26:10:1d:03:
        89:f8:0b:3c:53:22:cd:78:0c:c6:6d:4c:ed:33:e1:83:cd:ba:
        ea:29:e4:8c:b7:b1:58:30:22:46:7c:63:a6:29:20:d7:c3:d0:
        b4:69:7a:d6:81:d2:ae:cd:16:47:6c:04:e4:34:ee:c1:b4:bb:
        4f:46:46:1b
-----BEGIN CERTIFICATE-----
MIIEujCCA6KgAwIBAgIJANy30NOYwYUoMA0GCSqGSIb3DQEBBQUAMFgxCzAJBgNV
BAYTAkZSMQwwCgYDVQQIDANJREYxDjAMBgNVBAcMBVBhcmlzMRIwEAYDVQQKDAlO
b2RlT1BDVUExFzAVBgNVBAMMDk5vZGVPUENVQS1URVNUMB4XDTE4MDMyODEwNTk0
N1oXDTMzMDMyNDEwNTk0N1owWDELMAkGA1UEBhMCRlIxDDAKBgNVBAgMA0lERjEO
MAwGA1UEBwwFUGFyaXMxEjAQBgNVBAoMCU5vZGVPUENVQTEXMBUGA1UEAwwOTm9k
ZU9QQ1VBLVRFU1QwggEiMA0GCSqGSIb3DQEBAQUAA4IBDwAwggEKAoIBAQC2U6Rn
6teyr/E1qjw/10rdN6irI4ToWZd8JaZTFlGj93yjWaYuEf2wXvZXM9gIhaCRPwbr
PWxb3dxl0L7KY/lFppBoS0mnB5kxw2fN1/dM6dmu09VMfJNp0CgK64QeN64eQqb8
IgR8e+s2wxEVxLRG/qG2QpQ0e5agKLviZhu0buC/iWgmMAKsp17TXHhTNcU3GEIj
6T9seS7/XK2x/KREPOFuCp0v/GNv9ybSRRccp5iPrsKLzQXQbbBXtx0zB3tEwXCR
ntTQYQLqbUwrvJ5/Mzjp0KJCSbZDP5a1TPwjCGQyQI4DCtGStZLmVQ/eYZ6cILb1
gUNqUTbxVuyt0Q0RAgMBAAGjggGFMIIBgTAdBgNVHQ4EFgQUZQuL41g6S2GHAyRS
XGftugmy8+0wgYkGA1UdIwSBgTB/gBRlC4vjWDpLYYcDJFJcZ+26CbLz7aFcpFow
WDELMAkGA1UEBhMCRlIxDDAKBgNVBAgMA0lERjEOMAwGA1UEBwwFUGFyaXMxEjAQ
BgNVBAoMCU5vZGVPUENVQTEXMBUGA1UEAwwOTm9kZU9QQ1VBLVRFU1SCCQDct9DT
mMGFKDAMBgNVHRMEBTADAQH/MA4GA1UdDwEB/wQEAwIBBjBfBglghkgBhvhCAQ0E
UhZQU2VsZlNpZ25lZCBDZXJ0aWZpY2F0ZSBnZW5lcmF0ZWQgYnkgTm9kZS1PUENV
QSBDZXJ0aWZpY2F0ZSB1dGlsaXR5IHVzaW5nIG9wZW5zc2wwVQYDVR0RBE4wTIYv
dXJuOmR5bi0xNTktMjM0LnB1YmxpYy50dXQuZmk6Tm9kZS1PUENVQS1TZXJ2ZXKC
GWR5bi0xNTktMjM0LnB1YmxpYy50dXQuZmkwDQYJKoZIhvcNAQEFBQADggEBAAjx
gn9fGhzacBDicHL+DenwVjhMVDEu08TUZDR0ezFOkTht8t4Xv9Cw1KKv6C8qFVhB
yZgdsQ8yJcvC0jZt2pPvwdPbEwZqPx0ETpcKXSHKigTQBC5QhfFGVutcgnsj7KqO
FDAbhvoXn6Wsm6+pZ19FGlyWX/chRw7twyfTRSaYYEdaHe0tT5zCAfb6rQwbOeNR
47YbhXBHgmePMT2n67CP/Fl0OjGMLkvRVWHc6Yo7J9SZky41D5FdTKjhDARtCGUO
JhAdA4n4CzxTIs14DMZtTO0z4YPNuuop5Iy3sVgwIkZ8Y6YpINfD0LRpetaB0q7N
FkdsBOQ07sG0u09GRhs=
-----END CERTIFICATE-----
