Certificate:
    Data:
        Version: 3 (0x2)
        Serial Number:
            dc:67:38:8f:3d:9b:c2:5a
        Signature Algorithm: sha1WithRSAEncryption
        Issuer: C=FR, ST=IDF, L=Paris, O=NodeOPCUA, CN=NodeOPCUA-TEST
        Validity
            Not Before: Mar 28 10:59:49 2018 GMT
            Not After : Mar 24 10:59:49 2033 GMT
        Subject: C=FR, ST=IDF, L=Paris, O=NodeOPCUA, CN=NodeOPCUA-TEST
        Subject Public Key Info:
            Public Key Algorithm: rsaEncryption
            RSA Public Key: (2048 bit)
                Modulus (2048 bit):
                    00:d0:38:13:25:37:50:74:5e:e7:fb:6d:7b:d7:c1:
                    1a:1f:a4:19:86:52:22:45:55:41:8f:68:d9:70:7a:
                    17:6b:a6:48:f3:b8:c6:80:5c:95:bb:c8:9e:02:3c:
                    ca:8b:39:5b:04:55:80:71:30:22:b2:6a:1e:fb:29:
                    33:ff:36:9a:72:e7:10:8b:23:66:c5:96:12:93:37:
                    0d:00:67:b9:38:7e:38:a4:48:a5:e9:41:f5:64:c0:
                    2c:13:b5:58:7c:83:6b:56:8a:e5:17:d7:27:4a:43:
                    88:4c:6b:23:7f:e8:28:ce:dd:6f:04:fe:e1:c1:8d:
                    6f:0e:08:04:e4:66:c6:66:38:3a:56:64:4f:93:ee:
                    7f:41:39:09:39:03:51:3e:4c:51:3c:6c:15:ff:4d:
                    3f:84:a5:30:e1:0b:7c:7f:67:94:97:e0:65:92:75:
                    5d:82:51:10:3d:c8:d9:e5:10:ff:f8:12:a4:e7:fe:
                    48:3e:af:63:3e:b7:ba:7d:d9:dc:ea:03:44:ca:6c:
                    45:19:1e:a7:72:8a:a7:02:59:b4:c5:3b:54:5f:af:
                    31:c0:2a:70:3c:07:36:49:6c:bf:fe:98:49:1c:93:
                    c2:ac:2e:67:84:31:08:2a:e5:39:d4:21:aa:58:0f:
                    4b:b6:44:5f:95:f0:df:d1:4c:e4:cb:e3:84:04:03:
                    66:35
                Exponent: 65537 (0x10001)
        X509v3 extensions:
            X509v3 Subject Key Identifier: 
                DE:8A:1F:D8:12:C2:A8:9C:4F:25:88:AE:EC:27:2D:07:AD:7F:4B:98
            X509v3 Authority Key Identifier: 
                keyid:DE:8A:1F:D8:12:C2:A8:9C:4F:25:88:AE:EC:27:2D:07:AD:7F:4B:98
                DirName:/C=FR/ST=IDF/L=Paris/O=NodeOPCUA/CN=NodeOPCUA-TEST
                serial:DC:67:38:8F:3D:9B:C2:5A

            X509v3 Basic Constraints: 
                CA:TRUE
            X509v3 Key Usage: critical
                Certificate Sign, CRL Sign
            Netscape Comment: 
                SelfSigned Certificate generated by Node-OPCUA Certificate utility using openssl
            X509v3 Subject Alternative Name: 
                URI:urn:dyn-159-234.public.tut.fi:Node-OPCUA-Server, DNS:dyn-159-234.public.tut.fi
    Signature Algorithm: sha1WithRSAEncryption
        5e:4d:6a:37:f4:13:ec:6a:05:bb:b1:07:23:a6:a3:a4:f2:d9:
        74:b5:fb:47:b9:73:b9:a2:7e:31:4c:48:14:28:1f:09:9f:58:
        6b:3a:f7:02:ee:95:72:0c:b5:c2:dd:d5:9f:2a:ed:b2:9b:ac:
        7a:df:ec:cd:d6:ec:90:9f:a1:fb:bd:4a:fe:dd:b7:d6:ff:a1:
        00:60:14:b4:05:e5:c1:64:c6:15:ff:a5:a0:6b:83:29:04:e0:
        e7:52:d8:12:c1:8b:98:27:27:60:cd:4d:bc:b8:97:fb:60:1b:
        5f:07:bf:95:c1:41:b4:69:c2:eb:e7:eb:7f:0f:60:53:b9:ca:
        36:87:ab:53:da:93:38:3e:49:6f:50:eb:1d:f5:dc:df:3d:f1:
        dd:22:94:69:68:04:6c:71:e0:cd:d9:17:58:f6:f9:06:0b:1d:
        5c:e2:93:ff:82:af:da:4c:ac:a6:19:de:cc:db:cf:76:49:c9:
        0a:c6:d7:dd:3f:89:76:c0:43:cf:7a:53:4d:68:20:59:58:2a:
        ec:d2:fa:27:31:53:5a:a7:6e:de:ad:05:b1:0f:c5:00:89:a1:
        94:d8:78:54:45:e8:db:d5:2d:e9:c3:b8:71:04:92:5e:36:bc:
        19:6d:98:e9:58:3e:88:bd:51:0e:b1:a5:9e:ec:8a:b6:50:95:
        a8:7d:28:a3
-----BEGIN CERTIFICATE-----
MIIEujCCA6KgAwIBAgIJANxnOI89m8JaMA0GCSqGSIb3DQEBBQUAMFgxCzAJBgNV
BAYTAkZSMQwwCgYDVQQIDANJREYxDjAMBgNVBAcMBVBhcmlzMRIwEAYDVQQKDAlO
b2RlT1BDVUExFzAVBgNVBAMMDk5vZGVPUENVQS1URVNUMB4XDTE4MDMyODEwNTk0
OVoXDTMzMDMyNDEwNTk0OVowWDELMAkGA1UEBhMCRlIxDDAKBgNVBAgMA0lERjEO
MAwGA1UEBwwFUGFyaXMxEjAQBgNVBAoMCU5vZGVPUENVQTEXMBUGA1UEAwwOTm9k
ZU9QQ1VBLVRFU1QwggEiMA0GCSqGSIb3DQEBAQUAA4IBDwAwggEKAoIBAQDQOBMl
N1B0Xuf7bXvXwRofpBmGUiJFVUGPaNlwehdrpkjzuMaAXJW7yJ4CPMqLOVsEVYBx
MCKyah77KTP/Nppy5xCLI2bFlhKTNw0AZ7k4fjikSKXpQfVkwCwTtVh8g2tWiuUX
1ydKQ4hMayN/6CjO3W8E/uHBjW8OCATkZsZmODpWZE+T7n9BOQk5A1E+TFE8bBX/
TT+EpTDhC3x/Z5SX4GWSdV2CURA9yNnlEP/4EqTn/kg+r2M+t7p92dzqA0TKbEUZ
HqdyiqcCWbTFO1RfrzHAKnA8BzZJbL/+mEkck8KsLmeEMQgq5TnUIapYD0u2RF+V
8N/RTOTL44QEA2Y1AgMBAAGjggGFMIIBgTAdBgNVHQ4EFgQU3oof2BLCqJxPJYiu
7CctB61/S5gwgYkGA1UdIwSBgTB/gBTeih/YEsKonE8liK7sJy0HrX9LmKFcpFow
WDELMAkGA1UEBhMCRlIxDDAKBgNVBAgMA0lERjEOMAwGA1UEBwwFUGFyaXMxEjAQ
BgNVBAoMCU5vZGVPUENVQTEXMBUGA1UEAwwOTm9kZU9QQ1VBLVRFU1SCCQDcZziP
PZvCWjAMBgNVHRMEBTADAQH/MA4GA1UdDwEB/wQEAwIBBjBfBglghkgBhvhCAQ0E
UhZQU2VsZlNpZ25lZCBDZXJ0aWZpY2F0ZSBnZW5lcmF0ZWQgYnkgTm9kZS1PUENV
QSBDZXJ0aWZpY2F0ZSB1dGlsaXR5IHVzaW5nIG9wZW5zc2wwVQYDVR0RBE4wTIYv
dXJuOmR5bi0xNTktMjM0LnB1YmxpYy50dXQuZmk6Tm9kZS1PUENVQS1TZXJ2ZXKC
GWR5bi0xNTktMjM0LnB1YmxpYy50dXQuZmkwDQYJKoZIhvcNAQEFBQADggEBAF5N
ajf0E+xqBbuxByOmo6Ty2XS1+0e5c7mifjFMSBQoHwmfWGs69wLulXIMtcLd1Z8q
7bKbrHrf7M3W7JCfofu9Sv7dt9b/oQBgFLQF5cFkxhX/paBrgykE4OdS2BLBi5gn
J2DNTby4l/tgG18Hv5XBQbRpwuvn638PYFO5yjaHq1Pakzg+SW9Q6x313N898d0i
lGloBGxx4M3ZF1j2+QYLHVzik/+Cr9pMrKYZ3szbz3ZJyQrG190/iXbAQ896U01o
IFlYKuzS+icxU1qnbt6tBbEPxQCJoZTYeFRF6NvVLenDuHEEkl42vBltmOlYPoi9
UQ6xpZ7sirZQlah9KKM=
-----END CERTIFICATE-----
